; ModuleID = '37/1121.c'
source_filename = "37/1121.c"
target datalayout = "e-m:e-p270:32:32-p271:32:32-p272:64:64-i64:64-f80:128-n8:16:32:64-S128"
target triple = "x86_64-pc-linux-gnu"

@.str = private unnamed_addr constant [3 x i8] c"%d\00", align 1
@.str.1 = private unnamed_addr constant [3 x i8] c"%s\00", align 1
@.str.2 = private unnamed_addr constant [4 x i8] c"%c\0A\00", align 1
@.str.3 = private unnamed_addr constant [3 x i8] c"no\00", align 1

; Function Attrs: noinline nounwind uwtable
define dso_local void @main() #0 {
  %1 = alloca i32, align 4
  %2 = alloca [26 x i32], align 16
  %3 = alloca i32, align 4
  %4 = alloca i32, align 4
  %5 = alloca i32, align 4
  %6 = alloca [1001 x i8], align 16
  %7 = call i32 (i8*, ...) @__isoc99_scanf(i8* getelementptr inbounds ([3 x i8], [3 x i8]* @.str, i64 0, i64 0), i32* %1)
  br label %8

8:                                                ; preds = %83, %0
  %9 = load i32, i32* %1, align 4
  %10 = icmp sgt i32 %9, 0
  br i1 %10, label %11, label %86

11:                                               ; preds = %8
  %12 = getelementptr inbounds [1001 x i8], [1001 x i8]* %6, i64 0, i64 0
  %13 = call i32 (i8*, ...) @__isoc99_scanf(i8* getelementptr inbounds ([3 x i8], [3 x i8]* @.str.1, i64 0, i64 0), i8* %12)
  store i32 0, i32* %3, align 4
  br label %14

14:                                               ; preds = %21, %11
  %15 = load i32, i32* %3, align 4
  %16 = icmp slt i32 %15, 26
  br i1 %16, label %17, label %24

17:                                               ; preds = %14
  %18 = load i32, i32* %3, align 4
  %19 = sext i32 %18 to i64
  %20 = getelementptr inbounds [26 x i32], [26 x i32]* %2, i64 0, i64 %19
  store i32 0, i32* %20, align 4
  br label %21

21:                                               ; preds = %17
  %22 = load i32, i32* %3, align 4
  %23 = add nsw i32 %22, 1
  store i32 %23, i32* %3, align 4
  br label %14

24:                                               ; preds = %14
  store i32 0, i32* %3, align 4
  br label %25

25:                                               ; preds = %42, %24
  %26 = load i32, i32* %3, align 4
  %27 = sext i32 %26 to i64
  %28 = getelementptr inbounds [1001 x i8], [1001 x i8]* %6, i64 0, i64 0
  %29 = call i64 @strlen(i8* %28) #3
  %30 = icmp ult i64 %27, %29
  br i1 %30, label %31, label %45

31:                                               ; preds = %25
  %32 = load i32, i32* %3, align 4
  %33 = sext i32 %32 to i64
  %34 = getelementptr inbounds [1001 x i8], [1001 x i8]* %6, i64 0, i64 %33
  %35 = load i8, i8* %34, align 1
  %36 = sext i8 %35 to i32
  %37 = sub nsw i32 %36, 97
  %38 = sext i32 %37 to i64
  %39 = getelementptr inbounds [26 x i32], [26 x i32]* %2, i64 0, i64 %38
  %40 = load i32, i32* %39, align 4
  %41 = add nsw i32 %40, 1
  store i32 %41, i32* %39, align 4
  br label %42

42:                                               ; preds = %31
  %43 = load i32, i32* %3, align 4
  %44 = add nsw i32 %43, 1
  store i32 %44, i32* %3, align 4
  br label %25

45:                                               ; preds = %25
  store i32 0, i32* %4, align 4
  store i32 0, i32* %5, align 4
  br label %46

46:                                               ; preds = %80, %45
  %47 = load i32, i32* %5, align 4
  %48 = sext i32 %47 to i64
  %49 = getelementptr inbounds [1001 x i8], [1001 x i8]* %6, i64 0, i64 0
  %50 = call i64 @strlen(i8* %49) #3
  %51 = add i64 %50, 1
  %52 = icmp ult i64 %48, %51
  br i1 %52, label %53, label %83

53:                                               ; preds = %46
  %54 = load i32, i32* %5, align 4
  %55 = sext i32 %54 to i64
  %56 = getelementptr inbounds [1001 x i8], [1001 x i8]* %6, i64 0, i64 %55
  %57 = load i8, i8* %56, align 1
  %58 = sext i8 %57 to i32
  %59 = sub nsw i32 %58, 97
  %60 = sext i32 %59 to i64
  %61 = getelementptr inbounds [26 x i32], [26 x i32]* %2, i64 0, i64 %60
  %62 = load i32, i32* %61, align 4
  %63 = icmp eq i32 %62, 1
  br i1 %63, label %64, label %71

64:                                               ; preds = %53
  %65 = load i32, i32* %5, align 4
  %66 = sext i32 %65 to i64
  %67 = getelementptr inbounds [1001 x i8], [1001 x i8]* %6, i64 0, i64 %66
  %68 = load i8, i8* %67, align 1
  %69 = sext i8 %68 to i32
  %70 = call i32 (i8*, ...) @printf(i8* getelementptr inbounds ([4 x i8], [4 x i8]* @.str.2, i64 0, i64 0), i32 %69)
  br label %83

71:                                               ; preds = %53
  %72 = load i32, i32* %5, align 4
  %73 = sext i32 %72 to i64
  %74 = getelementptr inbounds [1001 x i8], [1001 x i8]* %6, i64 0, i64 0
  %75 = call i64 @strlen(i8* %74) #3
  %76 = icmp eq i64 %73, %75
  br i1 %76, label %77, label %79

77:                                               ; preds = %71
  %78 = call i32 (i8*, ...) @printf(i8* getelementptr inbounds ([3 x i8], [3 x i8]* @.str.3, i64 0, i64 0))
  br label %79

79:                                               ; preds = %77, %71
  br label %80

80:                                               ; preds = %79
  %81 = load i32, i32* %5, align 4
  %82 = add nsw i32 %81, 1
  store i32 %82, i32* %5, align 4
  br label %46

83:                                               ; preds = %64, %46
  %84 = load i32, i32* %1, align 4
  %85 = add nsw i32 %84, -1
  store i32 %85, i32* %1, align 4
  br label %8

86:                                               ; preds = %8
  ret void
}

declare dso_local i32 @__isoc99_scanf(i8*, ...) #1

; Function Attrs: nounwind readonly
declare dso_local i64 @strlen(i8*) #2

declare dso_local i32 @printf(i8*, ...) #1


!llvm.module.flags = !{!0}
!llvm.ident = !{!1}

!0 = !{i32 1, !"wchar_size", i32 4}
!1 = !{!"clang version 10.0.0-4ubuntu1 "}
